target datalayout = "e-m:e-p270:32:32-p271:32:32-p272:64:64-i64:64-i128:128-f80:128-n8:16:32:64-S128"
target triple = "x86_64-pc-linux-gnu"

%"class.std::__cxx11::basic_string" = type { %"struct.std::__cxx11::basic_string<char>::_Alloc_hider", i64, %union.anon }
%"struct.std::__cxx11::basic_string<char>::_Alloc_hider" = type { ptr }
%union.anon = type { i64, [8 x i8] }
%"class.osgeo::proj::cs::AxisDirection" = type { %"class.osgeo::proj::util::CodeList" }
%"class.osgeo::proj::util::CodeList" = type { %"class.std::__cxx11::basic_string" }
%"class.std::shared_ptr" = type { %"class.std::__shared_ptr" }
%"class.std::__shared_ptr" = type { ptr, %"class.std::__shared_count" }
%"class.std::__shared_count" = type { ptr }
%"class.dropbox::oxygen::nn.67" = type { %"class.std::shared_ptr.68" }
%"class.std::shared_ptr.68" = type { %"class.std::__shared_ptr.69" }
%"class.std::__shared_ptr.69" = type { ptr, %"class.std::__shared_count" }
%"class.osgeo::proj::util::PropertyMap" = type { %"class.std::unique_ptr.71" }
%"class.std::unique_ptr.71" = type { %"struct.std::__uniq_ptr_data.72" }
%"struct.std::__uniq_ptr_data.72" = type { %"class.std::__uniq_ptr_impl.73" }
%"class.std::__uniq_ptr_impl.73" = type { %"class.std::tuple.74" }
%"class.std::tuple.74" = type { %"struct.std::_Tuple_impl.75" }
%"struct.std::_Tuple_impl.75" = type { %"struct.std::_Head_base.78" }
%"struct.std::_Head_base.78" = type { ptr }

@_ZN5osgeo4proj2cs8AxisName8LatitudeB5cxx11E = external global %"class.std::__cxx11::basic_string", align 8
@_ZN5osgeo4proj6common16IdentifiedObject8NAME_KEYB5cxx11E = external global %"class.std::__cxx11::basic_string", align 8
@_ZN5osgeo4proj2cs16AxisAbbreviation3latB5cxx11E = external global %"class.std::__cxx11::basic_string", align 8
@_ZN5osgeo4proj2cs13AxisDirection5NORTHE = external global %"class.osgeo::proj::cs::AxisDirection", align 8

; Function Attrs: mustprogress nounwind uwtable
define linkonce_odr void @_ZNSt14__shared_countILN9__gnu_cxx12_Lock_policyE2EEC2Ev(ptr noundef nonnull align 8 dereferenceable(8) %0) unnamed_addr #5 comdat align 2 {
  %2 = alloca ptr, align 8
  store ptr %0, ptr %2, align 8, !tbaa !225
  %3 = load ptr, ptr %2, align 8
  %4 = getelementptr inbounds nuw %"class.std::__shared_count", ptr %3, i32 0, i32 0
  store ptr null, ptr %4, align 8, !tbaa !227
  ret void
}

; Function Attrs: mustprogress nounwind uwtable
define linkonce_odr void @_ZNSt12__shared_ptrIN5osgeo4proj2cs8MeridianELN9__gnu_cxx12_Lock_policyE2EEC2Ev(ptr noundef nonnull align 8 dereferenceable(16) %0) unnamed_addr #5 comdat align 2 {
  %2 = alloca ptr, align 8
  store ptr %0, ptr %2, align 8, !tbaa !103
  %3 = load ptr, ptr %2, align 8
  %4 = getelementptr inbounds nuw %"class.std::__shared_ptr", ptr %3, i32 0, i32 0
  store ptr null, ptr %4, align 8, !tbaa !105
  %5 = getelementptr inbounds nuw %"class.std::__shared_ptr", ptr %3, i32 0, i32 1
  call void @_ZNSt14__shared_countILN9__gnu_cxx12_Lock_policyE2EEC2Ev(ptr noundef nonnull align 8 dereferenceable(8) %5) #25
  ret void
}

; Function Attrs: mustprogress nounwind uwtable
define linkonce_odr void @_ZNSt10shared_ptrIN5osgeo4proj2cs8MeridianEEC2Ev(ptr noundef nonnull align 8 dereferenceable(16) %0) unnamed_addr #5 comdat align 2 {
  %2 = alloca ptr, align 8
  store ptr %0, ptr %2, align 8, !tbaa !83
  %3 = load ptr, ptr %2, align 8
  call void @_ZNSt12__shared_ptrIN5osgeo4proj2cs8MeridianELN9__gnu_cxx12_Lock_policyE2EEC2Ev(ptr noundef nonnull align 8 dereferenceable(16) %3) #25
  ret void
}

; Function Attrs: mustprogress nounwind uwtable
define linkonce_odr void @_ZNSt10shared_ptrIN5osgeo4proj2cs8MeridianEEC2EDn(ptr noundef nonnull align 8 dereferenceable(16) %0, ptr %1) unnamed_addr #5 comdat align 2 {
  %3 = alloca ptr, align 8
  %4 = alloca ptr, align 8
  store ptr %0, ptr %3, align 8, !tbaa !83
  store ptr %1, ptr %4, align 8, !tbaa !157
  %5 = load ptr, ptr %3, align 8
  call void @_ZNSt10shared_ptrIN5osgeo4proj2cs8MeridianEEC2Ev(ptr noundef nonnull align 8 dereferenceable(16) %5) #25
  ret void
}

; Function Attrs: mustprogress uwtable
define hidden void @_ZN5osgeo4proj2cs20CoordinateSystemAxis15createLAT_NORTHERKNS0_6common13UnitOfMeasureE(ptr dead_on_unwind noalias writable sret(%"class.dropbox::oxygen::nn.67") align 8 %0, ptr noundef nonnull align 8 dereferenceable(24) %1) #0 align 2 personality ptr @__gxx_personality_v0 {
  %3 = alloca ptr, align 8
  %4 = alloca ptr, align 8
  %5 = alloca %"class.osgeo::proj::util::PropertyMap", align 8
  %6 = alloca ptr, align 8
  %7 = alloca i32, align 4
  %8 = alloca %"class.std::shared_ptr", align 8
  store ptr %0, ptr %3, align 8
  store ptr %1, ptr %4, align 8, !tbaa !29
  call void @llvm.lifetime.start.p0(i64 8, ptr %5) #25
  call void @_ZN5osgeo4proj4util11PropertyMapC1Ev(ptr noundef nonnull align 8 dereferenceable(8) %5)
  %9 = invoke noundef nonnull align 8 dereferenceable(8) ptr @_ZN5osgeo4proj4util11PropertyMap3setERKNSt7__cxx1112basic_stringIcSt11char_traitsIcESaIcEEESA_(ptr noundef nonnull align 8 dereferenceable(8) %5, ptr noundef nonnull align 8 dereferenceable(32) @_ZN5osgeo4proj6common16IdentifiedObject8NAME_KEYB5cxx11E, ptr noundef nonnull align 8 dereferenceable(32) @_ZN5osgeo4proj2cs8AxisName8LatitudeB5cxx11E)
          to label %10 unwind label %13

10:                                               ; preds = %2
  %11 = load ptr, ptr %4, align 8, !tbaa !29
  call void @llvm.lifetime.start.p0(i64 16, ptr %8) #25
  call void @_ZNSt10shared_ptrIN5osgeo4proj2cs8MeridianEEC2EDn(ptr noundef nonnull align 8 dereferenceable(16) %8, ptr null) #25
  invoke void @_ZN5osgeo4proj2cs20CoordinateSystemAxis6createERKNS0_4util11PropertyMapERKNSt7__cxx1112basic_stringIcSt11char_traitsIcESaIcEEERKNS1_13AxisDirectionERKNS0_6common13UnitOfMeasureERKSt10shared_ptrINS1_8MeridianEE(ptr dead_on_unwind writable sret(%"class.dropbox::oxygen::nn.67") align 8 %0, ptr noundef nonnull align 8 dereferenceable(8) %9, ptr noundef nonnull align 8 dereferenceable(32) @_ZN5osgeo4proj2cs16AxisAbbreviation3latB5cxx11E, ptr noundef nonnull align 8 dereferenceable(32) @_ZN5osgeo4proj2cs13AxisDirection5NORTHE, ptr noundef nonnull align 8 dereferenceable(24) %11, ptr noundef nonnull align 8 dereferenceable(16) %8)
          to label %12 unwind label %17

12:                                               ; preds = %10
  call void @_ZNSt12__shared_ptrIN5osgeo4proj2cs8MeridianELN9__gnu_cxx12_Lock_policyE2EED2Ev(ptr noundef nonnull align 8 dereferenceable(16) %8) #25
  call void @llvm.lifetime.end.p0(i64 16, ptr %8) #25
  call void @_ZN5osgeo4proj4util11PropertyMapD1Ev(ptr noundef nonnull align 8 dereferenceable(8) %5) #25
  call void @llvm.lifetime.end.p0(i64 8, ptr %5) #25
  ret void

13:                                               ; preds = %2
  %14 = landingpad { ptr, i32 }
          cleanup
  %15 = extractvalue { ptr, i32 } %14, 0
  store ptr %15, ptr %6, align 8
  %16 = extractvalue { ptr, i32 } %14, 1
  store i32 %16, ptr %7, align 4
  br label %21

17:                                               ; preds = %10
  %18 = landingpad { ptr, i32 }
          cleanup
  %19 = extractvalue { ptr, i32 } %18, 0
  store ptr %19, ptr %6, align 8
  %20 = extractvalue { ptr, i32 } %18, 1
  store i32 %20, ptr %7, align 4
  call void @_ZNSt12__shared_ptrIN5osgeo4proj2cs8MeridianELN9__gnu_cxx12_Lock_policyE2EED2Ev(ptr noundef nonnull align 8 dereferenceable(16) %8) #25
  call void @llvm.lifetime.end.p0(i64 16, ptr %8) #25
  br label %21

21:                                               ; preds = %17, %13
  call void @_ZN5osgeo4proj4util11PropertyMapD1Ev(ptr noundef nonnull align 8 dereferenceable(8) %5) #25
  call void @llvm.lifetime.end.p0(i64 8, ptr %5) #25
  br label %22

22:                                               ; preds = %21
  %23 = load ptr, ptr %6, align 8
  %24 = load i32, ptr %7, align 4
  %25 = insertvalue { ptr, i32 } poison, ptr %23, 0
  %26 = insertvalue { ptr, i32 } %25, i32 %24, 1
  resume { ptr, i32 } %26
}